target datalayout = "e-m:e-p270:32:32-p271:32:32-p272:64:64-i64:64-i128:128-f80:128-n8:16:32:64-S128"
target triple = "x86_64-pc-linux-gnu"

%struct.PaAlsaStream = type { %struct.PaUtilStreamRepresentation, %struct.PaUtilCpuLoadMeasurer, %struct.PaUtilBufferProcessor, %struct.PaUnixThread, i64, i64, i32, i32, i32, i32, ptr, i32, i32, i32, i32, %struct.PaUnixMutex, i32, double, double, %struct.PaAlsaStreamComponent, %struct.PaAlsaStreamComponent }
%struct.PaUtilStreamRepresentation = type { i64, ptr, ptr, ptr, ptr, ptr, %struct.PaStreamInfo }
%struct.PaStreamInfo = type { i32, double, double, double }
%struct.PaUtilCpuLoadMeasurer = type { double, double, double }
%struct.PaUtilBufferProcessor = type { i64, i64, i32, i32, i32, i32, i64, i32, i32, i32, i32, ptr, ptr, i32, i32, i32, i32, ptr, ptr, i64, i64, ptr, ptr, i64, ptr, ptr, i64, ptr, i64, i32, [2 x i64], [2 x ptr], i32, [2 x i64], [2 x ptr], %struct.PaUtilTriangularDitherGenerator, double, ptr, ptr }
%struct.PaUtilTriangularDitherGenerator = type { i32, i32, i32 }
%struct.PaUnixThread = type { i64, i32, i32, i32, %struct.PaUnixMutex, %union.pthread_cond_t, i32, i32 }
%union.pthread_cond_t = type { %struct.__pthread_cond_s }
%struct.__pthread_cond_s = type { %union.__atomic_wide_counter, %union.__atomic_wide_counter, [2 x i32], [2 x i32], i32, i32, [2 x i32] }
%union.__atomic_wide_counter = type { i64 }
%struct.PaUnixMutex = type { %union.pthread_mutex_t }
%union.pthread_mutex_t = type { %struct.__pthread_mutex_s }
%struct.__pthread_mutex_s = type { i32, i32, i32, i32, i32, i16, i16, %struct.__pthread_internal_list }
%struct.__pthread_internal_list = type { ptr, ptr }
%struct.PaAlsaStreamComponent = type { i64, i32, i32, i32, i32, i32, ptr, i32, i32, i32, i32, ptr, i64, i64, i32, i32, i32, ptr, i64, i32, ptr }

@paUtilErr_ = internal global i32 0, align 4
@.str.195 = private unnamed_addr constant [212 x i8] c"Expression 'self->capture.ready || self->playback.ready' failed in 'generated/home/dtcxzyw/WorkSpace/Projects/compilers/llvm-opt-benchmark/bench/portaudio/portaudio/src/hostapi/alsa/pa_linux_alsa.c', line: 4150\0A\00", align 1
@.str.198 = private unnamed_addr constant [200 x i8] c"Expression 'PaAlsaStream_HandleXrun( self )' failed in 'generated/home/dtcxzyw/WorkSpace/Projects/compilers/llvm-opt-benchmark/bench/portaudio/portaudio/src/hostapi/alsa/pa_linux_alsa.c', line: 4232\0A\00", align 1

; Function Attrs: nounwind uwtable
define internal i32 @PaAlsaStream_SetUpBuffers(ptr noundef %0, ptr noundef %1, ptr noundef %2) #0 {
  %4 = alloca i32, align 4
  %5 = alloca ptr, align 8
  %6 = alloca ptr, align 8
  %7 = alloca ptr, align 8
  %8 = alloca i32, align 4
  %9 = alloca i64, align 8
  %10 = alloca i64, align 8
  %11 = alloca i64, align 8
  %12 = alloca i32, align 4
  %13 = alloca i32, align 4
  store ptr %0, ptr %5, align 8, !tbaa !38
  store ptr %1, ptr %6, align 8, !tbaa !206
  store ptr %2, ptr %7, align 8, !tbaa !122
  call void @llvm.lifetime.start.p0(i64 4, ptr %8) #17
  store i32 0, ptr %8, align 4, !tbaa !8
  call void @llvm.lifetime.start.p0(i64 8, ptr %9) #17
  store i64 -1, ptr %9, align 8, !tbaa !37
  call void @llvm.lifetime.start.p0(i64 8, ptr %10) #17
  store i64 -1, ptr %10, align 8, !tbaa !37
  call void @llvm.lifetime.start.p0(i64 8, ptr %11) #17
  store i64 0, ptr %11, align 8, !tbaa !37
  call void @llvm.lifetime.start.p0(i64 4, ptr %12) #17
  store i32 0, ptr %12, align 4, !tbaa !8
  %14 = load ptr, ptr %7, align 8, !tbaa !122
  %15 = load i32, ptr %14, align 4, !tbaa !8
  %16 = icmp ne i32 %15, 0
  br i1 %16, label %17, label %20

17:                                               ; preds = %3
  %18 = load ptr, ptr %6, align 8, !tbaa !206
  store i64 0, ptr %18, align 8, !tbaa !37
  %19 = load i32, ptr %8, align 4, !tbaa !8
  store i32 %19, ptr %4, align 4
  store i32 1, ptr %13, align 4
  br label %205

20:                                               ; preds = %3
  br label %21

21:                                               ; preds = %20
  %22 = load ptr, ptr %5, align 8, !tbaa !38
  %23 = getelementptr inbounds nuw %struct.PaAlsaStream, ptr %22, i32 0, i32 19
  %24 = getelementptr inbounds nuw %struct.PaAlsaStreamComponent, ptr %23, i32 0, i32 16
  %25 = load i32, ptr %24, align 8, !tbaa !200
  %26 = icmp ne i32 %25, 0
  br i1 %26, label %33, label %27

27:                                               ; preds = %21
  %28 = load ptr, ptr %5, align 8, !tbaa !38
  %29 = getelementptr inbounds nuw %struct.PaAlsaStream, ptr %28, i32 0, i32 20
  %30 = getelementptr inbounds nuw %struct.PaAlsaStreamComponent, ptr %29, i32 0, i32 16
  %31 = load i32, ptr %30, align 8, !tbaa !201
  %32 = icmp ne i32 %31, 0
  br label %33

33:                                               ; preds = %27, %21
  %34 = phi i1 [ true, %21 ], [ %32, %27 ]
  %35 = zext i1 %34 to i32
  %36 = icmp eq i32 %35, 0
  %37 = zext i1 %36 to i32
  %38 = sext i32 %37 to i64
  %39 = call i64 @llvm.expect.i64(i64 %38, i64 0)
  %40 = icmp ne i64 %39, 0
  br i1 %40, label %41, label %42

41:                                               ; preds = %33
  call void (ptr, ...) @PaUtil_DebugPrint(ptr noundef @.str.195)
  store i32 -9986, ptr %8, align 4, !tbaa !8
  br label %183

42:                                               ; preds = %33
  br label %43

43:                                               ; preds = %42
  br label %44

44:                                               ; preds = %43
  %45 = load ptr, ptr %5, align 8, !tbaa !38
  %46 = getelementptr inbounds nuw %struct.PaAlsaStream, ptr %45, i32 0, i32 19
  %47 = getelementptr inbounds nuw %struct.PaAlsaStreamComponent, ptr %46, i32 0, i32 11
  %48 = load ptr, ptr %47, align 8, !tbaa !100
  %49 = icmp ne ptr %48, null
  br i1 %49, label %50, label %75

50:                                               ; preds = %44
  %51 = load ptr, ptr %5, align 8, !tbaa !38
  %52 = getelementptr inbounds nuw %struct.PaAlsaStream, ptr %51, i32 0, i32 19
  %53 = getelementptr inbounds nuw %struct.PaAlsaStreamComponent, ptr %52, i32 0, i32 16
  %54 = load i32, ptr %53, align 8, !tbaa !200
  %55 = icmp ne i32 %54, 0
  br i1 %55, label %56, label %75

56:                                               ; preds = %50
  %57 = load ptr, ptr %6, align 8, !tbaa !206
  %58 = load i64, ptr %57, align 8, !tbaa !37
  store i64 %58, ptr %9, align 8, !tbaa !37
  br label %59

59:                                               ; preds = %56
  %60 = load ptr, ptr %5, align 8, !tbaa !38
  %61 = getelementptr inbounds nuw %struct.PaAlsaStream, ptr %60, i32 0, i32 19
  %62 = load ptr, ptr %5, align 8, !tbaa !38
  %63 = getelementptr inbounds nuw %struct.PaAlsaStream, ptr %62, i32 0, i32 2
  %64 = call i32 @PaAlsaStreamComponent_RegisterChannels(ptr noundef %61, ptr noundef %63, ptr noundef %9, ptr noundef %12)
  store i32 %64, ptr @paUtilErr_, align 4, !tbaa !8
  %65 = icmp slt i32 %64, 0
  %66 = zext i1 %65 to i32
  %67 = sext i32 %66 to i64
  %68 = call i64 @llvm.expect.i64(i64 %67, i64 0)
  %69 = icmp ne i64 %68, 0
  br i1 %69, label %70, label %72

70:                                               ; preds = %59
  call void (ptr, ...) @PaUtil_DebugPrint(ptr noundef @.str.196)
  %71 = load i32, ptr @paUtilErr_, align 4, !tbaa !8
  store i32 %71, ptr %8, align 4, !tbaa !8
  br label %183

72:                                               ; preds = %59
  br label %73

73:                                               ; preds = %72
  br label %74

74:                                               ; preds = %73
  br label %75

75:                                               ; preds = %74, %50, %44
  %76 = load ptr, ptr %5, align 8, !tbaa !38
  %77 = getelementptr inbounds nuw %struct.PaAlsaStream, ptr %76, i32 0, i32 20
  %78 = getelementptr inbounds nuw %struct.PaAlsaStreamComponent, ptr %77, i32 0, i32 11
  %79 = load ptr, ptr %78, align 8, !tbaa !101
  %80 = icmp ne ptr %79, null
  br i1 %80, label %81, label %106

81:                                               ; preds = %75
  %82 = load ptr, ptr %5, align 8, !tbaa !38
  %83 = getelementptr inbounds nuw %struct.PaAlsaStream, ptr %82, i32 0, i32 20
  %84 = getelementptr inbounds nuw %struct.PaAlsaStreamComponent, ptr %83, i32 0, i32 16
  %85 = load i32, ptr %84, align 8, !tbaa !201
  %86 = icmp ne i32 %85, 0
  br i1 %86, label %87, label %106

87:                                               ; preds = %81
  %88 = load ptr, ptr %6, align 8, !tbaa !206
  %89 = load i64, ptr %88, align 8, !tbaa !37
  store i64 %89, ptr %10, align 8, !tbaa !37
  br label %90

90:                                               ; preds = %87
  %91 = load ptr, ptr %5, align 8, !tbaa !38
  %92 = getelementptr inbounds nuw %struct.PaAlsaStream, ptr %91, i32 0, i32 20
  %93 = load ptr, ptr %5, align 8, !tbaa !38
  %94 = getelementptr inbounds nuw %struct.PaAlsaStream, ptr %93, i32 0, i32 2
  %95 = call i32 @PaAlsaStreamComponent_RegisterChannels(ptr noundef %92, ptr noundef %94, ptr noundef %10, ptr noundef %12)
  store i32 %95, ptr @paUtilErr_, align 4, !tbaa !8
  %96 = icmp slt i32 %95, 0
  %97 = zext i1 %96 to i32
  %98 = sext i32 %97 to i64
  %99 = call i64 @llvm.expect.i64(i64 %98, i64 0)
  %100 = icmp ne i64 %99, 0
  br i1 %100, label %101, label %103

101:                                              ; preds = %90
  call void (ptr, ...) @PaUtil_DebugPrint(ptr noundef @.str.197)
  %102 = load i32, ptr @paUtilErr_, align 4, !tbaa !8
  store i32 %102, ptr %8, align 4, !tbaa !8
  br label %183

103:                                              ; preds = %90
  br label %104

104:                                              ; preds = %103
  br label %105

105:                                              ; preds = %104
  br label %106

106:                                              ; preds = %105, %81, %75
  %107 = load i32, ptr %12, align 4, !tbaa !8
  %108 = icmp ne i32 %107, 0
  br i1 %108, label %109, label %110

109:                                              ; preds = %106
  br label %180

110:                                              ; preds = %106
  %111 = load i64, ptr %9, align 8, !tbaa !37
  %112 = load i64, ptr %10, align 8, !tbaa !37
  %113 = icmp ult i64 %111, %112
  br i1 %113, label %114, label %116

114:                                              ; preds = %110
  %115 = load i64, ptr %9, align 8, !tbaa !37
  br label %118

116:                                              ; preds = %110
  %117 = load i64, ptr %10, align 8, !tbaa !37
  br label %118

118:                                              ; preds = %116, %114
  %119 = phi i64 [ %115, %114 ], [ %117, %116 ]
  store i64 %119, ptr %11, align 8, !tbaa !37
  %120 = load i64, ptr %11, align 8, !tbaa !37
  %121 = load ptr, ptr %6, align 8, !tbaa !206
  %122 = load i64, ptr %121, align 8, !tbaa !37
  %123 = icmp ugt i64 %120, %122
  br i1 %123, label %124, label %139

124:                                              ; preds = %118
  %125 = load ptr, ptr %5, align 8, !tbaa !38
  %126 = getelementptr inbounds nuw %struct.PaAlsaStream, ptr %125, i32 0, i32 19
  %127 = getelementptr inbounds nuw %struct.PaAlsaStreamComponent, ptr %126, i32 0, i32 11
  %128 = load ptr, ptr %127, align 8, !tbaa !100
  %129 = icmp ne ptr %128, null
  br i1 %129, label %130, label %131

130:                                              ; preds = %124
  br label %131

131:                                              ; preds = %130, %124
  %132 = load ptr, ptr %5, align 8, !tbaa !38
  %133 = getelementptr inbounds nuw %struct.PaAlsaStream, ptr %132, i32 0, i32 20
  %134 = getelementptr inbounds nuw %struct.PaAlsaStreamComponent, ptr %133, i32 0, i32 11
  %135 = load ptr, ptr %134, align 8, !tbaa !101
  %136 = icmp ne ptr %135, null
  br i1 %136, label %137, label %138

137:                                              ; preds = %131
  br label %138

138:                                              ; preds = %137, %131
  store i64 0, ptr %11, align 8, !tbaa !37
  br label %180

139:                                              ; preds = %118
  %140 = load ptr, ptr %5, align 8, !tbaa !38
  %141 = getelementptr inbounds nuw %struct.PaAlsaStream, ptr %140, i32 0, i32 19
  %142 = getelementptr inbounds nuw %struct.PaAlsaStreamComponent, ptr %141, i32 0, i32 11
  %143 = load ptr, ptr %142, align 8, !tbaa !100
  %144 = icmp ne ptr %143, null
  br i1 %144, label %145, label %159

145:                                              ; preds = %139
  %146 = load ptr, ptr %5, align 8, !tbaa !38
  %147 = getelementptr inbounds nuw %struct.PaAlsaStream, ptr %146, i32 0, i32 19
  %148 = getelementptr inbounds nuw %struct.PaAlsaStreamComponent, ptr %147, i32 0, i32 16
  %149 = load i32, ptr %148, align 8, !tbaa !200
  %150 = icmp ne i32 %149, 0
  br i1 %150, label %151, label %155

151:                                              ; preds = %145
  %152 = load ptr, ptr %5, align 8, !tbaa !38
  %153 = getelementptr inbounds nuw %struct.PaAlsaStream, ptr %152, i32 0, i32 2
  %154 = load i64, ptr %11, align 8, !tbaa !37
  call void @PaUtil_SetInputFrameCount(ptr noundef %153, i64 noundef %154)
  br label %158

155:                                              ; preds = %145
  %156 = load ptr, ptr %5, align 8, !tbaa !38
  %157 = getelementptr inbounds nuw %struct.PaAlsaStream, ptr %156, i32 0, i32 2
  call void @PaUtil_SetNoInput(ptr noundef %157)
  br label %158

158:                                              ; preds = %155, %151
  br label %159

159:                                              ; preds = %158, %139
  %160 = load ptr, ptr %5, align 8, !tbaa !38
  %161 = getelementptr inbounds nuw %struct.PaAlsaStream, ptr %160, i32 0, i32 20
  %162 = getelementptr inbounds nuw %struct.PaAlsaStreamComponent, ptr %161, i32 0, i32 11
  %163 = load ptr, ptr %162, align 8, !tbaa !101
  %164 = icmp ne ptr %163, null
  br i1 %164, label %165, label %179

165:                                              ; preds = %159
  %166 = load ptr, ptr %5, align 8, !tbaa !38
  %167 = getelementptr inbounds nuw %struct.PaAlsaStream, ptr %166, i32 0, i32 20
  %168 = getelementptr inbounds nuw %struct.PaAlsaStreamComponent, ptr %167, i32 0, i32 16
  %169 = load i32, ptr %168, align 8, !tbaa !201
  %170 = icmp ne i32 %169, 0
  br i1 %170, label %171, label %175

171:                                              ; preds = %165
  %172 = load ptr, ptr %5, align 8, !tbaa !38
  %173 = getelementptr inbounds nuw %struct.PaAlsaStream, ptr %172, i32 0, i32 2
  %174 = load i64, ptr %11, align 8, !tbaa !37
  call void @PaUtil_SetOutputFrameCount(ptr noundef %173, i64 noundef %174)
  br label %178

175:                                              ; preds = %165
  %176 = load ptr, ptr %5, align 8, !tbaa !38
  %177 = getelementptr inbounds nuw %struct.PaAlsaStream, ptr %176, i32 0, i32 2
  call void @PaUtil_SetNoOutput(ptr noundef %177)
  br label %178

178:                                              ; preds = %175, %171
  br label %179

179:                                              ; preds = %178, %159
  br label %180

180:                                              ; preds = %179, %138, %109
  %181 = load i64, ptr %11, align 8, !tbaa !37
  %182 = load ptr, ptr %6, align 8, !tbaa !206
  store i64 %181, ptr %182, align 8, !tbaa !37
  br label %183

183:                                              ; preds = %195, %180, %101, %70, %41
  %184 = load i32, ptr %12, align 4, !tbaa !8
  %185 = icmp ne i32 %184, 0
  br i1 %185, label %186, label %201

186:                                              ; preds = %183
  br label %187

187:                                              ; preds = %186
  %188 = load ptr, ptr %5, align 8, !tbaa !38
  %189 = call i32 @PaAlsaStream_HandleXrun(ptr noundef %188)
  store i32 %189, ptr @paUtilErr_, align 4, !tbaa !8
  %190 = icmp slt i32 %189, 0
  %191 = zext i1 %190 to i32
  %192 = sext i32 %191 to i64
  %193 = call i64 @llvm.expect.i64(i64 %192, i64 0)
  %194 = icmp ne i64 %193, 0
  br i1 %194, label %195, label %197

195:                                              ; preds = %187
  call void (ptr, ...) @PaUtil_DebugPrint(ptr noundef @.str.198)
  %196 = load i32, ptr @paUtilErr_, align 4, !tbaa !8
  store i32 %196, ptr %8, align 4, !tbaa !8
  br label %183

197:                                              ; preds = %187
  br label %198

198:                                              ; preds = %197
  br label %199

199:                                              ; preds = %198
  %200 = load ptr, ptr %6, align 8, !tbaa !206
  store i64 0, ptr %200, align 8, !tbaa !37
  br label %201

201:                                              ; preds = %199, %183
  %202 = load i32, ptr %12, align 4, !tbaa !8
  %203 = load ptr, ptr %7, align 8, !tbaa !122
  store i32 %202, ptr %203, align 4, !tbaa !8
  %204 = load i32, ptr %8, align 4, !tbaa !8
  store i32 %204, ptr %4, align 4
  store i32 1, ptr %13, align 4
  br label %205

205:                                              ; preds = %201, %17
  call void @llvm.lifetime.end.p0(i64 4, ptr %12) #17
  call void @llvm.lifetime.end.p0(i64 8, ptr %11) #17
  call void @llvm.lifetime.end.p0(i64 8, ptr %10) #17
  call void @llvm.lifetime.end.p0(i64 8, ptr %9) #17
  call void @llvm.lifetime.end.p0(i64 4, ptr %8) #17
  %206 = load i32, ptr %4, align 4
  ret i32 %206
}