; Function Attrs: nounwind uwtable
define internal fastcc i32 @PaAlsaStream_SetUpBuffers(ptr noundef %0, ptr noundef nonnull captures(none) %1, ptr noundef nonnull captures(none) %2) unnamed_addr #2 {
  %4 = alloca i64, align 8
  %5 = alloca i64, align 8
  %6 = alloca i32, align 4
  call void @llvm.lifetime.start.p0(i64 8, ptr nonnull %4) #25
  store i64 -1, ptr %4, align 8, !tbaa !108
  call void @llvm.lifetime.start.p0(i64 8, ptr nonnull %5) #25
  store i64 -1, ptr %5, align 8, !tbaa !108
  call void @llvm.lifetime.start.p0(i64 4, ptr nonnull %6) #25
  store i32 0, ptr %6, align 4, !tbaa !3
  %7 = load i32, ptr %2, align 4, !tbaa !3
  %.not = icmp eq i32 %7, 0
  br i1 %.not, label %9, label %8

8:                                                ; preds = %3
  store i64 0, ptr %1, align 8, !tbaa !108
  br label %72

9:                                                ; preds = %3
  %10 = getelementptr inbounds nuw i8, ptr %0, i64 648
  %11 = getelementptr inbounds nuw i8, ptr %0, i64 736
  %12 = load i32, ptr %11, align 8, !tbaa !240
  %.not38 = icmp eq i32 %12, 0
  br i1 %.not38, label %13, label %.critedge.thread

13:                                               ; preds = %9
  %14 = getelementptr inbounds nuw i8, ptr %0, i64 864
  %15 = load i32, ptr %14, align 8, !tbaa !241
  %.not39 = icmp eq i32 %15, 0
  br i1 %.not39, label %16, label %.critedge, !prof !9

16:                                               ; preds = %13
  tail call void (ptr, ...) @PaUtil_DebugPrint(ptr noundef nonnull @.str.195) #25
  br label %.preheader

.critedge:                                        ; preds = %13
  %17 = getelementptr inbounds nuw i8, ptr %0, i64 704
  br label %27

.critedge.thread:                                 ; preds = %9
  %18 = getelementptr inbounds nuw i8, ptr %0, i64 704
  %19 = load ptr, ptr %18, align 8, !tbaa !129
  %.not4050 = icmp eq ptr %19, null
  br i1 %.not4050, label %27, label %20

20:                                               ; preds = %.critedge.thread
  %21 = load i64, ptr %1, align 8, !tbaa !108
  store i64 %21, ptr %4, align 8, !tbaa !108
  %22 = getelementptr inbounds nuw i8, ptr %0, i64 104
  %23 = call fastcc i32 @PaAlsaStreamComponent_RegisterChannels(ptr noundef nonnull %10, ptr noundef nonnull %22, ptr noundef %4, ptr noundef %6)
  store i32 %23, ptr @paUtilErr_, align 4, !tbaa !3
  %24 = icmp slt i32 %23, 0
  br i1 %24, label %25, label %27, !prof !9

25:                                               ; preds = %20
  call void (ptr, ...) @PaUtil_DebugPrint(ptr noundef nonnull @.str.196) #25
  %26 = load i32, ptr @paUtilErr_, align 4, !tbaa !3
  br label %.preheader

27:                                               ; preds = %.critedge, %.critedge.thread, %20
  %28 = phi ptr [ %18, %.critedge.thread ], [ %18, %20 ], [ %17, %.critedge ]
  %29 = getelementptr inbounds nuw i8, ptr %0, i64 776
  %30 = getelementptr inbounds nuw i8, ptr %0, i64 832
  %31 = load ptr, ptr %30, align 8, !tbaa !130
  %.not42 = icmp eq ptr %31, null
  br i1 %.not42, label %42, label %32

32:                                               ; preds = %27
  %33 = getelementptr inbounds nuw i8, ptr %0, i64 864
  %34 = load i32, ptr %33, align 8, !tbaa !241
  %.not43 = icmp eq i32 %34, 0
  br i1 %.not43, label %42, label %35

35:                                               ; preds = %32
  %36 = load i64, ptr %1, align 8, !tbaa !108
  store i64 %36, ptr %5, align 8, !tbaa !108
  %37 = getelementptr inbounds nuw i8, ptr %0, i64 104
  %38 = call fastcc i32 @PaAlsaStreamComponent_RegisterChannels(ptr noundef nonnull %29, ptr noundef nonnull %37, ptr noundef %5, ptr noundef %6)
  store i32 %38, ptr @paUtilErr_, align 4, !tbaa !3
  %39 = icmp slt i32 %38, 0
  br i1 %39, label %40, label %42, !prof !9

40:                                               ; preds = %35
  call void (ptr, ...) @PaUtil_DebugPrint(ptr noundef nonnull @.str.197) #25
  %41 = load i32, ptr @paUtilErr_, align 4, !tbaa !3
  br label %.preheader

42:                                               ; preds = %35, %32, %27
  %43 = load i32, ptr %6, align 4, !tbaa !3
  %.not44 = icmp eq i32 %43, 0
  br i1 %.not44, label %44, label %65

44:                                               ; preds = %42
  %45 = load i64, ptr %4, align 8, !tbaa !108
  %46 = load i64, ptr %5, align 8, !tbaa !108
  %47 = call i64 @llvm.umin.i64(i64 %45, i64 %46)
  %48 = load i64, ptr %1, align 8, !tbaa !108
  %49 = icmp ugt i64 %47, %48
  br i1 %49, label %65, label %50

50:                                               ; preds = %44
  %51 = load ptr, ptr %28, align 8, !tbaa !129
  %.not45 = icmp eq ptr %51, null
  br i1 %.not45, label %57, label %52

52:                                               ; preds = %50
  %53 = load i32, ptr %11, align 8, !tbaa !240
  %.not46 = icmp eq i32 %53, 0
  %54 = getelementptr inbounds nuw i8, ptr %0, i64 104
  br i1 %.not46, label %56, label %55

55:                                               ; preds = %52
  call void @PaUtil_SetInputFrameCount(ptr noundef nonnull %54, i64 noundef %47) #25
  br label %57

56:                                               ; preds = %52
  call void @PaUtil_SetNoInput(ptr noundef nonnull %54) #25
  br label %57

57:                                               ; preds = %55, %56, %50
  %58 = load ptr, ptr %30, align 8, !tbaa !130
  %.not47 = icmp eq ptr %58, null
  br i1 %.not47, label %65, label %59

59:                                               ; preds = %57
  %60 = getelementptr inbounds nuw i8, ptr %0, i64 864
  %61 = load i32, ptr %60, align 8, !tbaa !241
  %.not48 = icmp eq i32 %61, 0
  %62 = getelementptr inbounds nuw i8, ptr %0, i64 104
  br i1 %.not48, label %64, label %63

63:                                               ; preds = %59
  call void @PaUtil_SetOutputFrameCount(ptr noundef nonnull %62, i64 noundef %47) #25
  br label %65

64:                                               ; preds = %59
  call void @PaUtil_SetNoOutput(ptr noundef nonnull %62) #25
  br label %65

65:                                               ; preds = %44, %57, %64, %63, %42
  %.0 = phi i64 [ 0, %42 ], [ %47, %63 ], [ %47, %64 ], [ %47, %57 ], [ 0, %44 ]
  store i64 %.0, ptr %1, align 8, !tbaa !108
  br label %.preheader

.preheader:                                       ; preds = %16, %25, %40, %65
  %.035.ph = phi i32 [ 0, %65 ], [ %41, %40 ], [ %26, %25 ], [ -9986, %16 ]
  %66 = load i32, ptr %6, align 4, !tbaa !3
  %.not49 = icmp eq i32 %66, 0
  br i1 %.not49, label %.loopexit, label %.lr.ph.split

.lr.ph.split:                                     ; preds = %.preheader
  %67 = call fastcc i32 @PaAlsaStream_HandleXrun(ptr noundef nonnull %0)
  store i32 %67, ptr @paUtilErr_, align 4, !tbaa !3
  %68 = icmp slt i32 %67, 0
  br i1 %68, label %.lr.ph59, label %.split, !prof !255

.lr.ph59:                                         ; preds = %.lr.ph.split, %.lr.ph59
  call void (ptr, ...) @PaUtil_DebugPrint(ptr noundef nonnull @.str.198) #25
  %69 = load i32, ptr @paUtilErr_, align 4, !tbaa !3
  %70 = call fastcc i32 @PaAlsaStream_HandleXrun(ptr noundef nonnull %0)
  store i32 %70, ptr @paUtilErr_, align 4, !tbaa !3
  %71 = icmp slt i32 %70, 0
  br i1 %71, label %.lr.ph59, label %.split, !prof !256

.split:                                           ; preds = %.lr.ph59, %.lr.ph.split
  %.035.lcssa52 = phi i32 [ %.035.ph, %.lr.ph.split ], [ %69, %.lr.ph59 ]
  store i64 0, ptr %1, align 8, !tbaa !108
  br label %.loopexit

.loopexit:                                        ; preds = %.preheader, %.split
  %.03553 = phi i32 [ %.035.lcssa52, %.split ], [ %.035.ph, %.preheader ]
  store i32 %66, ptr %2, align 4, !tbaa !3
  br label %72

72:                                               ; preds = %.loopexit, %8
  %.036 = phi i32 [ 0, %8 ], [ %.03553, %.loopexit ]
  call void @llvm.lifetime.end.p0(i64 4, ptr nonnull %6) #25
  call void @llvm.lifetime.end.p0(i64 8, ptr nonnull %5) #25
  call void @llvm.lifetime.end.p0(i64 8, ptr nonnull %4) #25
  ret i32 %.036
}